target datalayout = "e-m:e-p270:32:32-p271:32:32-p272:64:64-i64:64-i128:128-f80:128-n8:16:32:64-S128"
target triple = "x86_64-pc-linux-gnu"

; Function Attrs: nounwind uwtable
define internal i32 @pcapng_compute_string_option_size(ptr noundef %0) #0 {
  %2 = alloca ptr, align 8
  %3 = alloca i32, align 4
  %4 = alloca i32, align 4
  store ptr %0, ptr %2, align 8
  store i32 0, ptr %3, align 4
  %5 = load ptr, ptr %2, align 8
  %6 = load ptr, ptr %5, align 8
  %7 = call i64 @strlen(ptr noundef %6) #12
  %8 = trunc i64 %7 to i32
  %9 = and i32 %8, 65535
  store i32 %9, ptr %3, align 4
  %10 = load i32, ptr %3, align 4
  %11 = urem i32 %10, 4
  %12 = icmp ne i32 %11, 0
  br i1 %12, label %13, label %17

13:                                               ; preds = %1
  %14 = load i32, ptr %3, align 4
  %15 = urem i32 %14, 4
  %16 = sub i32 4, %15
  store i32 %16, ptr %4, align 4
  br label %18

17:                                               ; preds = %1
  store i32 0, ptr %4, align 4
  br label %18

18:                                               ; preds = %17, %13
  %19 = load i32, ptr %4, align 4
  %20 = load i32, ptr %3, align 4
  %21 = add i32 %20, %19
  store i32 %21, ptr %3, align 4
  %22 = load i32, ptr %3, align 4
  ret i32 %22
}

; Function Attrs: nounwind uwtable
define internal i32 @compute_nrb_option_size(ptr noundef %0, i32 noundef %1, i32 noundef %2, ptr noundef %3) #0 {
  %5 = alloca ptr, align 8
  %6 = alloca i32, align 4
  %7 = alloca i32, align 4
  %8 = alloca ptr, align 8
  %9 = alloca i32, align 4
  store ptr %0, ptr %5, align 8
  store i32 %1, ptr %6, align 4
  store i32 %2, ptr %7, align 4
  store ptr %3, ptr %8, align 8
  %10 = load i32, ptr %6, align 4
  switch i32 %10, label %16 [
    i32 2, label %11
    i32 3, label %14
    i32 4, label %15
  ]

11:                                               ; preds = %4
  %12 = load ptr, ptr %8, align 8
  %13 = call i32 @pcapng_compute_string_option_size(ptr noundef %12)
  store i32 %13, ptr %9, align 4
  br label %17

14:                                               ; preds = %4
  store i32 4, ptr %9, align 4
  br label %17

15:                                               ; preds = %4
  store i32 16, ptr %9, align 4
  br label %17

16:                                               ; preds = %4
  store i32 0, ptr %9, align 4
  br label %17

17:                                               ; preds = %16, %15, %14, %11
  %18 = load i32, ptr %9, align 4
  ret i32 %18
}