; Function Attrs: mustprogress nofree nounwind willreturn memory(read, inaccessiblemem: none) uwtable
define internal range(i32 0, 65539) i32 @compute_nrb_option_size(ptr readnone captures(none) %0, i32 noundef %1, i32 %2, ptr noundef readonly captures(none) %3) #9 {
  switch i32 %1, label %13 [
    i32 2, label %5
    i32 3, label %14
    i32 4, label %12
  ]

5:                                                ; preds = %4
  %.val = load ptr, ptr %3, align 8
  %6 = tail call i64 @strlen(ptr noundef nonnull readonly dereferenceable(1) %.val) #19
  %7 = trunc i64 %6 to i32
  %8 = and i32 %7, 3
  %.not.i = icmp eq i32 %8, 0
  %9 = sub nuw nsw i32 4, %8
  %.0.i = select i1 %.not.i, i32 0, i32 %9
  %10 = and i32 %7, 65535
  %11 = add nuw nsw i32 %.0.i, %10
  br label %14

12:                                               ; preds = %4
  br label %14

13:                                               ; preds = %4
  br label %14

14:                                               ; preds = %4, %13, %12, %5
  %.0 = phi i32 [ 0, %13 ], [ 16, %12 ], [ %11, %5 ], [ 4, %4 ]
  ret i32 %.0
}